target datalayout = "e-m:e-p270:32:32-p271:32:32-p272:64:64-i64:64-i128:128-f80:128-n8:16:32:64-S128"
target triple = "x86_64-pc-linux-gnu"

%struct._packet_info = type { ptr, ptr, i32, i32, %struct.nstime_t, %struct.nstime_t, %struct.nstime_t, i8, ptr, ptr, ptr, ptr, %struct._address, %struct._address, %struct._address, %struct._address, %struct._address, %struct._address, i32, ptr, i8, [3 x i8], %struct.anon.1, i32, i32, i32, i32, ptr, i8, ptr, ptr, i16, i16, i32, i32, i16, i32, i32, ptr, ptr, ptr, i8, i8, i16, i16, i16, i32, i16, i16, ptr, ptr, ptr, ptr, ptr, i32, i32 }
%struct.nstime_t = type { i64, i32 }
%struct._address = type { i32, i32, ptr, ptr }
%struct.anon.1 = type { i8, [3 x i8] }
%struct._frame_data = type <{ i32, i32, i32, i32, i32, [4 x i8], i64, ptr, ptr, ptr, i8, i16, [5 x i8], %struct.nstime_t, %struct.nstime_t, i32, i32 }>

@someip_handle_udp = internal global ptr null, align 8
@someip_detect_dtls = internal global i8 0, align 1
@dtls_handle = internal global ptr null, align 8
@.str.314 = private unnamed_addr constant [10 x i8] c"dtls.port\00", align 1

; Function Attrs: null_pointer_is_valid sspstrong uwtable
define internal zeroext i1 @could_this_be_dtls(ptr noundef %0) #0 {
  %2 = alloca i1, align 1
  %3 = alloca ptr, align 8
  %4 = alloca i32, align 4
  %5 = alloca i32, align 4
  %6 = alloca i8, align 1
  %7 = alloca i16, align 2
  %8 = alloca i16, align 2
  %9 = alloca i8, align 1
  %10 = alloca i32, align 4
  %11 = alloca i8, align 1
  %12 = alloca i8, align 1
  store ptr %0, ptr %3, align 8
  call void @llvm.lifetime.start.p0(i64 4, ptr %4) #19
  %13 = load ptr, ptr %3, align 8
  %14 = call i32 @tvb_captured_length_remaining(ptr noundef %13, i32 noundef 0)
  store i32 %14, ptr %4, align 4
  %15 = load i32, ptr %4, align 4
  %16 = icmp slt i32 %15, 13
  br i1 %16, label %17, label %18

17:                                               ; preds = %1
  store i1 false, ptr %2, align 1
  store i32 1, ptr %5, align 4
  br label %86

18:                                               ; preds = %1
  call void @llvm.lifetime.start.p0(i64 1, ptr %6) #19
  %19 = load ptr, ptr %3, align 8
  %20 = call zeroext i8 @tvb_get_uint8(ptr noundef %19, i32 noundef 0)
  store i8 %20, ptr %6, align 1
  call void @llvm.lifetime.start.p0(i64 2, ptr %7) #19
  %21 = load ptr, ptr %3, align 8
  %22 = call zeroext i16 @tvb_get_uint16(ptr noundef %21, i32 noundef 1, i32 noundef 0)
  store i16 %22, ptr %7, align 2
  call void @llvm.lifetime.start.p0(i64 2, ptr %8) #19
  %23 = load ptr, ptr %3, align 8
  %24 = call zeroext i16 @tvb_get_uint16(ptr noundef %23, i32 noundef 11, i32 noundef 0)
  store i16 %24, ptr %8, align 2
  call void @llvm.lifetime.start.p0(i64 1, ptr %9) #19
  %25 = load i8, ptr %6, align 1
  %26 = zext i8 %25 to i32
  %27 = icmp sle i32 20, %26
  br i1 %27, label %28, label %46

28:                                               ; preds = %18
  %29 = load i8, ptr %6, align 1
  %30 = zext i8 %29 to i32
  %31 = icmp sle i32 %30, 63
  br i1 %31, label %32, label %46

32:                                               ; preds = %28
  %33 = load i16, ptr %7, align 2
  %34 = zext i16 %33 to i32
  %35 = icmp sle i32 65276, %34
  br i1 %35, label %36, label %46

36:                                               ; preds = %32
  %37 = load i16, ptr %7, align 2
  %38 = zext i16 %37 to i32
  %39 = icmp sle i32 %38, 65279
  br i1 %39, label %40, label %46

40:                                               ; preds = %36
  %41 = load i32, ptr %4, align 4
  %42 = load i16, ptr %8, align 2
  %43 = zext i16 %42 to i32
  %44 = add i32 %43, 13
  %45 = icmp eq i32 %41, %44
  br label %46

46:                                               ; preds = %40, %36, %32, %28, %18
  %47 = phi i1 [ false, %36 ], [ false, %32 ], [ false, %28 ], [ false, %18 ], [ %45, %40 ]
  %48 = zext i1 %47 to i8
  store i8 %48, ptr %9, align 1
  %49 = load i8, ptr %9, align 1, !range !6, !noundef !7
  %50 = trunc i8 %49 to i1
  br i1 %50, label %51, label %55

51:                                               ; preds = %46
  %52 = load i32, ptr %4, align 4
  %53 = icmp slt i32 %52, 16
  br i1 %53, label %54, label %55

54:                                               ; preds = %51
  store i1 true, ptr %2, align 1
  store i32 1, ptr %5, align 4
  br label %85

55:                                               ; preds = %51, %46
  call void @llvm.lifetime.start.p0(i64 4, ptr %10) #19
  %56 = load ptr, ptr %3, align 8
  %57 = call i32 @tvb_get_uint32(ptr noundef %56, i32 noundef 4, i32 noundef 0)
  store i32 %57, ptr %10, align 4
  call void @llvm.lifetime.start.p0(i64 1, ptr %11) #19
  %58 = load ptr, ptr %3, align 8
  %59 = call zeroext i8 @tvb_get_uint8(ptr noundef %58, i32 noundef 12)
  store i8 %59, ptr %11, align 1
  call void @llvm.lifetime.start.p0(i64 1, ptr %12) #19
  %60 = load i8, ptr %11, align 1
  %61 = zext i8 %60 to i32
  %62 = icmp eq i32 %61, 1
  br i1 %62, label %63, label %74

63:                                               ; preds = %55
  %64 = load i32, ptr %10, align 4
  %65 = icmp ule i32 8, %64
  br i1 %65, label %66, label %74

66:                                               ; preds = %63
  %67 = load i32, ptr %10, align 4
  %68 = icmp ule i32 %67, 65535
  br i1 %68, label %69, label %74

69:                                               ; preds = %66
  %70 = load i32, ptr %4, align 4
  %71 = load i32, ptr %10, align 4
  %72 = add i32 %71, 8
  %73 = icmp eq i32 %70, %72
  br label %74

74:                                               ; preds = %69, %66, %63, %55
  %75 = phi i1 [ false, %66 ], [ false, %63 ], [ false, %55 ], [ %73, %69 ]
  %76 = zext i1 %75 to i8
  store i8 %76, ptr %12, align 1
  %77 = load i8, ptr %9, align 1, !range !6, !noundef !7
  %78 = trunc i8 %77 to i1
  br i1 %78, label %79, label %83

79:                                               ; preds = %74
  %80 = load i8, ptr %12, align 1, !range !6, !noundef !7
  %81 = trunc i8 %80 to i1
  %82 = xor i1 %81, true
  br label %83

83:                                               ; preds = %79, %74
  %84 = phi i1 [ false, %74 ], [ %82, %79 ]
  store i1 %84, ptr %2, align 1
  store i32 1, ptr %5, align 4
  call void @llvm.lifetime.end.p0(i64 1, ptr %12) #19
  call void @llvm.lifetime.end.p0(i64 1, ptr %11) #19
  call void @llvm.lifetime.end.p0(i64 4, ptr %10) #19
  br label %85

85:                                               ; preds = %83, %54
  call void @llvm.lifetime.end.p0(i64 1, ptr %9) #19
  call void @llvm.lifetime.end.p0(i64 2, ptr %8) #19
  call void @llvm.lifetime.end.p0(i64 2, ptr %7) #19
  call void @llvm.lifetime.end.p0(i64 1, ptr %6) #19
  br label %86

86:                                               ; preds = %85, %17
  call void @llvm.lifetime.end.p0(i64 4, ptr %4) #19
  %87 = load i1, ptr %2, align 1
  ret i1 %87
}

; Function Attrs: null_pointer_is_valid sspstrong uwtable
define internal i32 @dissect_someip_udp(ptr noundef %0, ptr noundef %1, ptr noundef %2, ptr noundef %3) #0 {
  %5 = alloca i32, align 4
  %6 = alloca ptr, align 8
  %7 = alloca ptr, align 8
  %8 = alloca ptr, align 8
  %9 = alloca ptr, align 8
  store ptr %0, ptr %6, align 8
  store ptr %1, ptr %7, align 8
  store ptr %2, ptr %8, align 8
  store ptr %3, ptr %9, align 8
  %10 = load i8, ptr @someip_detect_dtls, align 1, !range !6, !noundef !7
  %11 = trunc i8 %10 to i1
  br i1 %11, label %12, label %43

12:                                               ; preds = %4
  %13 = load ptr, ptr %6, align 8
  %14 = call zeroext i1 @could_this_be_dtls(ptr noundef %13)
  br i1 %14, label %15, label %43

15:                                               ; preds = %12
  %16 = load ptr, ptr %7, align 8
  %17 = getelementptr inbounds nuw %struct._packet_info, ptr %16, i32 0, i32 8
  %18 = load ptr, ptr %17, align 8
  %19 = getelementptr inbounds nuw %struct._frame_data, ptr %18, i32 0, i32 11
  %20 = load i16, ptr %19, align 1
  %21 = lshr i16 %20, 3
  %22 = and i16 %21, 1
  %23 = zext i16 %22 to i32
  %24 = icmp ne i32 %23, 0
  br i1 %24, label %32, label %25

25:                                               ; preds = %15
  %26 = load ptr, ptr %7, align 8
  %27 = getelementptr inbounds nuw %struct._packet_info, ptr %26, i32 0, i32 25
  %28 = load i32, ptr %27, align 8
  %29 = trunc i32 %28 to i16
  %30 = zext i16 %29 to i32
  %31 = load ptr, ptr @someip_handle_udp, align 8
  call void @dissector_add_uint(ptr noundef @.str.314, i32 noundef %30, ptr noundef %31)
  br label %32

32:                                               ; preds = %25, %15
  %33 = load ptr, ptr @dtls_handle, align 8
  %34 = icmp ne ptr %33, null
  br i1 %34, label %35, label %42

35:                                               ; preds = %32
  %36 = load ptr, ptr @dtls_handle, align 8
  %37 = load ptr, ptr %6, align 8
  %38 = load ptr, ptr %7, align 8
  %39 = load ptr, ptr %8, align 8
  %40 = load ptr, ptr %9, align 8
  %41 = call i32 @call_dissector_with_data(ptr noundef %36, ptr noundef %37, ptr noundef %38, ptr noundef %39, ptr noundef %40)
  store i32 %41, ptr %5, align 4
  br label %49

42:                                               ; preds = %32
  br label %43

43:                                               ; preds = %42, %12, %4
  %44 = load ptr, ptr %6, align 8
  %45 = load ptr, ptr %7, align 8
  %46 = load ptr, ptr %8, align 8
  %47 = load ptr, ptr %9, align 8
  %48 = call i32 @udp_dissect_pdus(ptr noundef %44, ptr noundef %45, ptr noundef %46, i32 noundef 8, ptr noundef null, ptr noundef @get_someip_message_len, ptr noundef @dissect_someip_message, ptr noundef %47)
  store i32 %48, ptr %5, align 4
  br label %49

49:                                               ; preds = %43, %35
  %50 = load i32, ptr %5, align 4
  ret i32 %50
}