; Function Attrs: null_pointer_is_valid sspstrong uwtable
define internal i32 @dissect_someip_udp(ptr noundef %0, ptr noundef %1, ptr noundef %2, ptr noundef %3) #0 {
  %5 = load i8, ptr @someip_detect_dtls, align 1, !range !6, !noundef !7
  %6 = trunc nuw i8 %5 to i1
  br i1 %6, label %7, label %could_this_be_dtls.exit.thread14

7:                                                ; preds = %4
  %8 = tail call i32 @tvb_captured_length_remaining(ptr noundef %0, i32 noundef 0)
  %9 = icmp slt i32 %8, 13
  br i1 %9, label %could_this_be_dtls.exit.thread14, label %10

10:                                               ; preds = %7
  %11 = tail call zeroext i8 @tvb_get_uint8(ptr noundef %0, i32 noundef 0)
  %12 = tail call zeroext i16 @tvb_get_uint16(ptr noundef %0, i32 noundef 1, i32 noundef 0)
  %13 = tail call zeroext i16 @tvb_get_uint16(ptr noundef %0, i32 noundef 11, i32 noundef 0)
  %14 = add i8 %11, -20
  %or.cond.i = icmp ult i8 %14, 44
  %15 = and i16 %12, -4
  %16 = icmp eq i16 %15, -260
  %or.cond8.i = select i1 %or.cond.i, i1 %16, i1 false
  br i1 %or.cond8.i, label %17, label %.thread.i

17:                                               ; preds = %10
  %18 = zext i16 %13 to i32
  %19 = add nuw nsw i32 %18, 13
  %20 = icmp eq i32 %8, %19
  %21 = icmp samesign ult i32 %8, 16
  %or.cond10.i = and i1 %21, %20
  br i1 %or.cond10.i, label %could_this_be_dtls.exit.thread, label %.thread.i

.thread.i:                                        ; preds = %17, %10
  %22 = phi i1 [ %20, %17 ], [ false, %10 ]
  %23 = tail call i32 @tvb_get_uint32(ptr noundef %0, i32 noundef 4, i32 noundef 0)
  %24 = tail call zeroext i8 @tvb_get_uint8(ptr noundef %0, i32 noundef 12)
  %25 = icmp eq i8 %24, 1
  %26 = add i32 %23, -8
  %27 = icmp ult i32 %26, 65528
  %or.cond14.i = select i1 %25, i1 %27, i1 false
  br i1 %or.cond14.i, label %28, label %could_this_be_dtls.exit

28:                                               ; preds = %.thread.i
  %29 = add nuw nsw i32 %23, 8
  %30 = icmp ne i32 %8, %29
  br label %could_this_be_dtls.exit

could_this_be_dtls.exit:                          ; preds = %.thread.i, %28
  %31 = phi i1 [ true, %.thread.i ], [ %30, %28 ]
  %32 = select i1 %22, i1 %31, i1 false
  br i1 %32, label %could_this_be_dtls.exit.thread, label %could_this_be_dtls.exit.thread14

could_this_be_dtls.exit.thread:                   ; preds = %17, %could_this_be_dtls.exit
  %33 = getelementptr inbounds nuw i8, ptr %1, i64 80
  %34 = load ptr, ptr %33, align 8
  %35 = getelementptr inbounds nuw i8, ptr %34, i64 57
  %36 = load i16, ptr %35, align 1
  %37 = and i16 %36, 8
  %.not = icmp eq i16 %37, 0
  br i1 %.not, label %38, label %43

38:                                               ; preds = %could_this_be_dtls.exit.thread
  %39 = getelementptr inbounds nuw i8, ptr %1, i64 288
  %40 = load i32, ptr %39, align 8
  %41 = and i32 %40, 65535
  %42 = load ptr, ptr @someip_handle_udp, align 8
  tail call void @dissector_add_uint(ptr noundef nonnull @.str.314, i32 noundef %41, ptr noundef %42)
  br label %43

43:                                               ; preds = %38, %could_this_be_dtls.exit.thread
  %44 = load ptr, ptr @dtls_handle, align 8
  %.not12 = icmp eq ptr %44, null
  br i1 %.not12, label %could_this_be_dtls.exit.thread14, label %45

45:                                               ; preds = %43
  %46 = tail call i32 @call_dissector_with_data(ptr noundef nonnull %44, ptr noundef %0, ptr noundef %1, ptr noundef %2, ptr noundef %3)
  br label %48

could_this_be_dtls.exit.thread14:                 ; preds = %7, %43, %could_this_be_dtls.exit, %4
  %47 = tail call i32 @udp_dissect_pdus(ptr noundef %0, ptr noundef %1, ptr noundef %2, i32 noundef 8, ptr noundef null, ptr noundef nonnull @get_someip_message_len, ptr noundef nonnull @dissect_someip_message, ptr noundef %3)
  br label %48

48:                                               ; preds = %could_this_be_dtls.exit.thread14, %45
  %.0 = phi i32 [ %46, %45 ], [ %47, %could_this_be_dtls.exit.thread14 ]
  ret i32 %.0
}